; Listing generated by Microsoft (R) Optimizing Compiler Version 19.43.34810.0 

include listing.inc

INCLUDELIB MSVCRTD
INCLUDELIB OLDNAMES

msvcjmc	SEGMENT
__D43F3135_concurrencysal@h DB 01H
__809F1F3D_sal@h DB 01H
__F4CF5225_vadefs@h DB 01H
__EFD15DDC_vcruntime@h DB 01H
__0B0C18C1_xkeycheck@h DB 01H
__4B5143EF_yvals_core@h DB 01H
__1B0272D9_corecrt@h DB 01H
__B9985323_float@h DB 01H
__1EECE41E_cfloat DB 01H
__32B4127C_limits@h DB 01H
__FE7CC424_climits DB 01H
__FA660213_vcruntime_new@h DB 01H
__1C1A517F_vcruntime_new_debug@h DB 01H
__935DC21B_crtdbg@h DB 01H
__525804FF_crtdefs@h DB 01H
__31900103_use_ansi@h DB 01H
__CCD35069_yvals@h DB 01H
__BB16330F_corecrt_math@h DB 01H
__3BF2A406_math@h DB 01H
__45DED006_corecrt_malloc@h DB 01H
__13F5961F_stddef@h DB 01H
__FD6DBD68_corecrt_search@h DB 01H
__E2E33A61_corecrt_wstdlib@h DB 01H
__6E5ACABA_stdlib@h DB 01H
__7A93E6D6_cstdlib DB 01H
__CA9E334A_xtr1common DB 01H
__98FE829A_intrin0@inl@h DB 01H
__4B75BDF4_intrin0@h DB 01H
__E225118A_cmath DB 01H
__44420885_corecrt_stdio_config@h DB 01H
__AB601D8D_corecrt_wstdio@h DB 01H
__C1EC35D3_stdio@h DB 01H
__6DA82F99_cstdio DB 01H
__61CC25A1_errno@h DB 01H
__34137F69_vcruntime_string@h DB 01H
__E4C945B4_corecrt_memcpy_s@h DB 01H
__8EAFF484_corecrt_memory@h DB 01H
__6490AEC5_corecrt_wstring@h DB 01H
__E8295E1E_string@h DB 01H
__36014E36_cstring DB 01H
__EF1F6BBA_corecrt_wconio@h DB 01H
__74484FB3_corecrt_wctype@h DB 01H
__3D1D430C_corecrt_wdirect@h DB 01H
__8ECB7138_corecrt_share@h DB 01H
__DB7FEBA6_corecrt_wio@h DB 01H
__9A9F0068_corecrt_wprocess@h DB 01H
__369A9BC3_corecrt_wtime@h DB 01H
__CE789B9D_types@h DB 01H
__9901C817_stat@h DB 01H
__3FCAD62E_wchar@h DB 01H
__F723F9CA_cwchar DB 01H
__B4E37CFC_iosfwd DB 01H
__DF583C7B_cstddef DB 01H
__CEF94706_initializer_list DB 01H
__8CC23C43_stdint@h DB 01H
__C7CD07AB_cstdint DB 01H
__45A5DE0A_type_traits DB 01H
__4D9E635D_utility DB 01H
__F5E92B30___msvc_iter_core@hpp DB 01H
__E01A44BE_xutility DB 01H
__F1B6F3FE_iterator DB 01H
__F7972D0B_share@h DB 01H
__BF896257___msvc_system_error_abi@hpp DB 01H
__F0895B62_cerrno DB 01H
__FA77ED4C_malloc@h DB 01H
__89766DA4_corecrt_terminate@h DB 01H
__DD2B0C13_eh@h DB 01H
__14F4542D_vcruntime_exception@h DB 01H
__9A076A69_exception DB 01H
__1FF70EC4___msvc_sanitizer_annotate_container@hpp DB 01H
__A84FD9E6___msvc_string_view@hpp DB 01H
__780AA97A_limits DB 01H
__8D3CA2FB_new DB 01H
__900BE6BF_xatomic@h DB 01H
__270B009E_xmemory DB 01H
__53D88602_xstring DB 01H
__13495034_stdexcept DB 01H
__08C99DBF_xcall_once@h DB 01H
__64464566_xerrc@h DB 01H
__09416E1F___msvc_threads_core@hpp DB 01H
__0A9237D2_time@h DB 01H
__24968D82_ctime DB 01H
__56DEA7FF_xtimec@h DB 01H
__50DE36B0_xthreads@h DB 01H
__133FF5B8_atomic DB 01H
__B7948F9F_system_error DB 01H
__E107CDAF_vcruntime_typeinfo@h DB 01H
__90C5B7A7_typeinfo DB 01H
__C4A4A5F4_memory DB 01H
__E8E1F2FB_xfacet DB 01H
__7045DB1A___msvc_xlocinfo_types@hpp DB 01H
__1EC467ED_ctype@h DB 01H
__6263C83E_cctype DB 01H
__791C33B7_locale@h DB 01H
__E93F3A07_clocale DB 01H
__8F4C546F_xlocinfo DB 01H
__8CE6F233_xlocale DB 01H
__B6A9237C_xiosbase DB 01H
__11E9E888_streambuf DB 01H
__12619424_xlocnum DB 01H
__75F198ED_ios DB 01H
__B8A56285___msvc_ostream@hpp DB 01H
__FC261DCD_istream DB 01H
__9FF628F7_ostream DB 01H
__82633EA1_iostream DB 01H
__A3555417_Log@h DB 01H
__1AEA5505_Log@cpp DB 01H
msvcjmc	ENDS
PUBLIC	?__empty_global_delete@@YAXPEAX@Z		; __empty_global_delete
PUBLIC	?__empty_global_delete@@YAXPEAX_K@Z		; __empty_global_delete
PUBLIC	?length@?$_Narrow_char_traits@DH@std@@SA_KQEBD@Z ; std::_Narrow_char_traits<char,int>::length
PUBLIC	?eq_int_type@?$_Narrow_char_traits@DH@std@@SA_NHH@Z ; std::_Narrow_char_traits<char,int>::eq_int_type
PUBLIC	?eof@?$_Narrow_char_traits@DH@std@@SAHXZ	; std::_Narrow_char_traits<char,int>::eof
PUBLIC	?Log@@YAXPEBD@Z					; Log
PUBLIC	?InitLog@@YAXXZ					; InitLog
PUBLIC	??$?6U?$char_traits@D@std@@@std@@YAAEAV?$basic_ostream@DU?$char_traits@D@std@@@0@AEAV10@PEBD@Z ; std::operator<<<std::char_traits<char> >
PUBLIC	??$endl@DU?$char_traits@D@std@@@std@@YAAEAV?$basic_ostream@DU?$char_traits@D@std@@@0@AEAV10@@Z ; std::endl<char,std::char_traits<char> >
PUBLIC	??0_Sentry_base@?$basic_ostream@DU?$char_traits@D@std@@@std@@QEAA@AEAV12@@Z ; std::basic_ostream<char,std::char_traits<char> >::_Sentry_base::_Sentry_base
PUBLIC	??1_Sentry_base@?$basic_ostream@DU?$char_traits@D@std@@@std@@QEAA@XZ ; std::basic_ostream<char,std::char_traits<char> >::_Sentry_base::~_Sentry_base
PUBLIC	??0sentry@?$basic_ostream@DU?$char_traits@D@std@@@std@@QEAA@AEAV12@@Z ; std::basic_ostream<char,std::char_traits<char> >::sentry::sentry
PUBLIC	??1sentry@?$basic_ostream@DU?$char_traits@D@std@@@std@@QEAA@XZ ; std::basic_ostream<char,std::char_traits<char> >::sentry::~sentry
PUBLIC	??Bsentry@?$basic_ostream@DU?$char_traits@D@std@@@std@@QEBA_NXZ ; std::basic_ostream<char,std::char_traits<char> >::sentry::operator bool
PUBLIC	??$addressof@V?$basic_ostream@DU?$char_traits@D@std@@@std@@@std@@YAPEAV?$basic_ostream@DU?$char_traits@D@std@@@0@AEAV10@@Z ; std::addressof<std::basic_ostream<char,std::char_traits<char> > >
PUBLIC	__JustMyCode_Default
PUBLIC	??_C@_0BB@IEGEGCHM@Initializing?5Log@		; `string'
EXTRN	?uncaught_exception@std@@YA_NXZ:PROC		; std::uncaught_exception
EXTRN	__imp_?good@ios_base@std@@QEBA_NXZ:PROC
EXTRN	__imp_?flags@ios_base@std@@QEBAHXZ:PROC
EXTRN	__imp_?width@ios_base@std@@QEBA_JXZ:PROC
EXTRN	__imp_?width@ios_base@std@@QEAA_J_J@Z:PROC
EXTRN	__imp_?sputc@?$basic_streambuf@DU?$char_traits@D@std@@@std@@QEAAHD@Z:PROC
EXTRN	__imp_?sputn@?$basic_streambuf@DU?$char_traits@D@std@@@std@@QEAA_JPEBD_J@Z:PROC
EXTRN	__imp_?setstate@?$basic_ios@DU?$char_traits@D@std@@@std@@QEAAXH_N@Z:PROC
EXTRN	__imp_?tie@?$basic_ios@DU?$char_traits@D@std@@@std@@QEBAPEAV?$basic_ostream@DU?$char_traits@D@std@@@2@XZ:PROC
EXTRN	__imp_?rdbuf@?$basic_ios@DU?$char_traits@D@std@@@std@@QEBAPEAV?$basic_streambuf@DU?$char_traits@D@std@@@2@XZ:PROC
EXTRN	__imp_?fill@?$basic_ios@DU?$char_traits@D@std@@@std@@QEBADXZ:PROC
EXTRN	__imp_?widen@?$basic_ios@DU?$char_traits@D@std@@@std@@QEBADD@Z:PROC
EXTRN	__imp_?_Osfx@?$basic_ostream@DU?$char_traits@D@std@@@std@@QEAAXXZ:PROC
EXTRN	__imp_??6?$basic_ostream@DU?$char_traits@D@std@@@std@@QEAAAEAV01@P6AAEAV01@AEAV01@@Z@Z:PROC
EXTRN	__imp_?put@?$basic_ostream@DU?$char_traits@D@std@@@std@@QEAAAEAV12@D@Z:PROC
EXTRN	__imp_?flush@?$basic_ostream@DU?$char_traits@D@std@@@std@@QEAAAEAV12@XZ:PROC
EXTRN	__CheckForDebuggerJustMyCode:PROC
EXTRN	__CxxFrameHandler4:PROC
EXTRN	__imp_?cout@std@@3V?$basic_ostream@DU?$char_traits@D@std@@@1@A:BYTE
;	COMDAT pdata
pdata	SEGMENT
$pdata$?length@?$_Narrow_char_traits@DH@std@@SA_KQEBD@Z DD imagerel $LN8
	DD	imagerel $LN8+47
	DD	imagerel $unwind$?length@?$_Narrow_char_traits@DH@std@@SA_KQEBD@Z
pdata	ENDS
;	COMDAT pdata
pdata	SEGMENT
$pdata$?eq_int_type@?$_Narrow_char_traits@DH@std@@SA_NHH@Z DD imagerel $LN6
	DD	imagerel $LN6+42
	DD	imagerel $unwind$?eq_int_type@?$_Narrow_char_traits@DH@std@@SA_NHH@Z
pdata	ENDS
;	COMDAT pdata
pdata	SEGMENT
$pdata$?eof@?$_Narrow_char_traits@DH@std@@SAHXZ DD imagerel $LN6
	DD	imagerel $LN6+26
	DD	imagerel $unwind$?eof@?$_Narrow_char_traits@DH@std@@SAHXZ
pdata	ENDS
;	COMDAT pdata
pdata	SEGMENT
$pdata$?Log@@YAXPEBD@Z DD imagerel $LN4
	DD	imagerel $LN4+58
	DD	imagerel $unwind$?Log@@YAXPEBD@Z
pdata	ENDS
;	COMDAT pdata
pdata	SEGMENT
$pdata$?InitLog@@YAXXZ DD imagerel $LN4
	DD	imagerel $LN4+32
	DD	imagerel $unwind$?InitLog@@YAXXZ
pdata	ENDS
;	COMDAT pdata
pdata	SEGMENT
$pdata$??$?6U?$char_traits@D@std@@@std@@YAAEAV?$basic_ostream@DU?$char_traits@D@std@@@0@AEAV10@PEBD@Z DD imagerel $LN40
	DD	imagerel $LN40+494
	DD	imagerel $unwind$??$?6U?$char_traits@D@std@@@std@@YAAEAV?$basic_ostream@DU?$char_traits@D@std@@@0@AEAV10@PEBD@Z
pdata	ENDS
;	COMDAT pdata
pdata	SEGMENT
$pdata$?catch$1@?0???$?6U?$char_traits@D@std@@@std@@YAAEAV?$basic_ostream@DU?$char_traits@D@std@@@0@AEAV10@PEBD@Z@4HA DD imagerel ?catch$1@?0???$?6U?$char_traits@D@std@@@std@@YAAEAV?$basic_ostream@DU?$char_traits@D@std@@@0@AEAV10@PEBD@Z@4HA
	DD	imagerel ?catch$1@?0???$?6U?$char_traits@D@std@@@std@@YAAEAV?$basic_ostream@DU?$char_traits@D@std@@@0@AEAV10@PEBD@Z@4HA+59
	DD	imagerel $unwind$?catch$1@?0???$?6U?$char_traits@D@std@@@std@@YAAEAV?$basic_ostream@DU?$char_traits@D@std@@@0@AEAV10@PEBD@Z@4HA
pdata	ENDS
;	COMDAT pdata
pdata	SEGMENT
$pdata$??$endl@DU?$char_traits@D@std@@@std@@YAAEAV?$basic_ostream@DU?$char_traits@D@std@@@0@AEAV10@@Z DD imagerel $LN4
	DD	imagerel $LN4+69
	DD	imagerel $unwind$??$endl@DU?$char_traits@D@std@@@std@@YAAEAV?$basic_ostream@DU?$char_traits@D@std@@@0@AEAV10@@Z
pdata	ENDS
;	COMDAT pdata
pdata	SEGMENT
$pdata$??0_Sentry_base@?$basic_ostream@DU?$char_traits@D@std@@@std@@QEAA@AEAV12@@Z DD imagerel $LN7
	DD	imagerel $LN7+75
	DD	imagerel $unwind$??0_Sentry_base@?$basic_ostream@DU?$char_traits@D@std@@@std@@QEAA@AEAV12@@Z
pdata	ENDS
;	COMDAT pdata
pdata	SEGMENT
$pdata$??1_Sentry_base@?$basic_ostream@DU?$char_traits@D@std@@@std@@QEAA@XZ DD imagerel $LN7
	DD	imagerel $LN7+64
	DD	imagerel $unwind$??1_Sentry_base@?$basic_ostream@DU?$char_traits@D@std@@@std@@QEAA@XZ
pdata	ENDS
;	COMDAT pdata
pdata	SEGMENT
$pdata$??0sentry@?$basic_ostream@DU?$char_traits@D@std@@@std@@QEAA@AEAV12@@Z DD imagerel $LN9
	DD	imagerel $LN9+158
	DD	imagerel $unwind$??0sentry@?$basic_ostream@DU?$char_traits@D@std@@@std@@QEAA@AEAV12@@Z
pdata	ENDS
;	COMDAT pdata
pdata	SEGMENT
$pdata$??1sentry@?$basic_ostream@DU?$char_traits@D@std@@@std@@QEAA@XZ DD imagerel $LN8
	DD	imagerel $LN8+52
	DD	imagerel $unwind$??1sentry@?$basic_ostream@DU?$char_traits@D@std@@@std@@QEAA@XZ
pdata	ENDS
;	COMDAT pdata
pdata	SEGMENT
$pdata$??Bsentry@?$basic_ostream@DU?$char_traits@D@std@@@std@@QEBA_NXZ DD imagerel $LN4
	DD	imagerel $LN4+31
	DD	imagerel $unwind$??Bsentry@?$basic_ostream@DU?$char_traits@D@std@@@std@@QEBA_NXZ
pdata	ENDS
;	COMDAT pdata
pdata	SEGMENT
$pdata$??$addressof@V?$basic_ostream@DU?$char_traits@D@std@@@std@@@std@@YAPEAV?$basic_ostream@DU?$char_traits@D@std@@@0@AEAV10@@Z DD imagerel $LN6
	DD	imagerel $LN6+30
	DD	imagerel $unwind$??$addressof@V?$basic_ostream@DU?$char_traits@D@std@@@std@@@std@@YAPEAV?$basic_ostream@DU?$char_traits@D@std@@@0@AEAV10@@Z
pdata	ENDS
;	COMDAT ??_C@_0BB@IEGEGCHM@Initializing?5Log@
CONST	SEGMENT
??_C@_0BB@IEGEGCHM@Initializing?5Log@ DB 'Initializing Log', 00H ; `string'
CONST	ENDS
;	COMDAT xdata
xdata	SEGMENT
$unwind$??$addressof@V?$basic_ostream@DU?$char_traits@D@std@@@std@@@std@@YAPEAV?$basic_ostream@DU?$char_traits@D@std@@@0@AEAV10@@Z DD 020601H
	DD	030023206H
xdata	ENDS
;	COMDAT xdata
xdata	SEGMENT
$unwind$??Bsentry@?$basic_ostream@DU?$char_traits@D@std@@@std@@QEBA_NXZ DD 020601H
	DD	030023206H
xdata	ENDS
;	COMDAT xdata
xdata	SEGMENT
$unwind$??1sentry@?$basic_ostream@DU?$char_traits@D@std@@@std@@QEAA@XZ DD 020601H
	DD	030023206H
xdata	ENDS
;	COMDAT xdata
xdata	SEGMENT
$ip2state$??0sentry@?$basic_ostream@DU?$char_traits@D@std@@@std@@QEAA@AEAV12@@Z DB 04H
	DB	'X'
	DB	00H
	DB	084H
	DB	02H
xdata	ENDS
;	COMDAT xdata
xdata	SEGMENT
$stateUnwindMap$??0sentry@?$basic_ostream@DU?$char_traits@D@std@@@std@@QEAA@AEAV12@@Z DB 02H
	DB	0cH
	DD	imagerel ??1_Sentry_base@?$basic_ostream@DU?$char_traits@D@std@@@std@@QEAA@XZ
	DB	060H
xdata	ENDS
;	COMDAT xdata
xdata	SEGMENT
$cppxdata$??0sentry@?$basic_ostream@DU?$char_traits@D@std@@@std@@QEAA@AEAV12@@Z DB 028H
	DD	imagerel $stateUnwindMap$??0sentry@?$basic_ostream@DU?$char_traits@D@std@@@std@@QEAA@AEAV12@@Z
	DD	imagerel $ip2state$??0sentry@?$basic_ostream@DU?$char_traits@D@std@@@std@@QEAA@AEAV12@@Z
xdata	ENDS
;	COMDAT xdata
xdata	SEGMENT
$unwind$??0sentry@?$basic_ostream@DU?$char_traits@D@std@@@std@@QEAA@AEAV12@@Z DD 061411H
	DD	086414H
	DD	073414H
	DD	070103214H
	DD	imagerel __CxxFrameHandler4
	DD	imagerel $cppxdata$??0sentry@?$basic_ostream@DU?$char_traits@D@std@@@std@@QEAA@AEAV12@@Z
xdata	ENDS
;	COMDAT xdata
xdata	SEGMENT
$ip2state$??1_Sentry_base@?$basic_ostream@DU?$char_traits@D@std@@@std@@QEAA@XZ DB 02H
	DB	'n'
	DB	00H
xdata	ENDS
;	COMDAT xdata
xdata	SEGMENT
$cppxdata$??1_Sentry_base@?$basic_ostream@DU?$char_traits@D@std@@@std@@QEAA@XZ DB 060H
	DD	imagerel $ip2state$??1_Sentry_base@?$basic_ostream@DU?$char_traits@D@std@@@std@@QEAA@XZ
xdata	ENDS
;	COMDAT xdata
xdata	SEGMENT
$unwind$??1_Sentry_base@?$basic_ostream@DU?$char_traits@D@std@@@std@@QEAA@XZ DD 020619H
	DD	030023206H
	DD	imagerel __CxxFrameHandler4
	DD	imagerel $cppxdata$??1_Sentry_base@?$basic_ostream@DU?$char_traits@D@std@@@std@@QEAA@XZ
xdata	ENDS
;	COMDAT xdata
xdata	SEGMENT
$unwind$??0_Sentry_base@?$basic_ostream@DU?$char_traits@D@std@@@std@@QEAA@AEAV12@@Z DD 040a01H
	DD	06340aH
	DD	07006320aH
xdata	ENDS
;	COMDAT xdata
xdata	SEGMENT
$unwind$??$endl@DU?$char_traits@D@std@@@std@@YAAEAV?$basic_ostream@DU?$char_traits@D@std@@@0@AEAV10@@Z DD 020601H
	DD	030023206H
xdata	ENDS
;	COMDAT voltbl
voltbl	SEGMENT
_volmd	DB	00H
voltbl	ENDS
;	COMDAT xdata
xdata	SEGMENT
$unwind$?catch$1@?0???$?6U?$char_traits@D@std@@@std@@YAAEAV?$basic_ostream@DU?$char_traits@D@std@@@0@AEAV10@PEBD@Z@4HA DD 020a01H
	DD	05006320aH
xdata	ENDS
;	COMDAT xdata
xdata	SEGMENT
$ip2state$??$?6U?$char_traits@D@std@@@std@@YAAEAV?$basic_ostream@DU?$char_traits@D@std@@@0@AEAV10@PEBD@Z DB 08H
	DB	'1', 02H
	DB	00H
	DB	0ceH
	DB	04H
	DB	0d5H, 02H
	DB	02H
	DB	'B'
	DB	00H
xdata	ENDS
;	COMDAT xdata
xdata	SEGMENT
$handlerMap$??$?6U?$char_traits@D@std@@@std@@YAAEAV?$basic_ostream@DU?$char_traits@D@std@@@0@AEAV10@PEBD@Z DB 02H
	DB	011H
	DB	080H
	DD	imagerel ?catch$1@?0???$?6U?$char_traits@D@std@@@std@@YAAEAV?$basic_ostream@DU?$char_traits@D@std@@@0@AEAV10@PEBD@Z@4HA
	DB	0a9H, 06H
xdata	ENDS
;	COMDAT xdata
xdata	SEGMENT
$tryMap$??$?6U?$char_traits@D@std@@@std@@YAAEAV?$basic_ostream@DU?$char_traits@D@std@@@0@AEAV10@PEBD@Z DB 02H
	DB	02H
	DB	02H
	DB	04H
	DD	imagerel $handlerMap$??$?6U?$char_traits@D@std@@@std@@YAAEAV?$basic_ostream@DU?$char_traits@D@std@@@0@AEAV10@PEBD@Z
xdata	ENDS
;	COMDAT xdata
xdata	SEGMENT
$stateUnwindMap$??$?6U?$char_traits@D@std@@@std@@YAAEAV?$basic_ostream@DU?$char_traits@D@std@@@0@AEAV10@PEBD@Z DB 06H
	DB	0aH
	DD	imagerel ??1sentry@?$basic_ostream@DU?$char_traits@D@std@@@std@@QEAA@XZ
	DB	040H
	DB	030H
	DB	038H
xdata	ENDS
;	COMDAT xdata
xdata	SEGMENT
$cppxdata$??$?6U?$char_traits@D@std@@@std@@YAAEAV?$basic_ostream@DU?$char_traits@D@std@@@0@AEAV10@PEBD@Z DB 038H
	DD	imagerel $stateUnwindMap$??$?6U?$char_traits@D@std@@@std@@YAAEAV?$basic_ostream@DU?$char_traits@D@std@@@0@AEAV10@PEBD@Z
	DD	imagerel $tryMap$??$?6U?$char_traits@D@std@@@std@@YAAEAV?$basic_ostream@DU?$char_traits@D@std@@@0@AEAV10@PEBD@Z
	DD	imagerel $ip2state$??$?6U?$char_traits@D@std@@@std@@YAAEAV?$basic_ostream@DU?$char_traits@D@std@@@0@AEAV10@PEBD@Z
xdata	ENDS
;	COMDAT xdata
xdata	SEGMENT
$unwind$??$?6U?$char_traits@D@std@@@std@@YAAEAV?$basic_ostream@DU?$char_traits@D@std@@@0@AEAV10@PEBD@Z DD 0a1c19H
	DD	0f641cH
	DD	0d341cH
	DD	0f018521cH
	DD	0d014e016H
	DD	07010c012H
	DD	imagerel __CxxFrameHandler4
	DD	imagerel $cppxdata$??$?6U?$char_traits@D@std@@@std@@YAAEAV?$basic_ostream@DU?$char_traits@D@std@@@0@AEAV10@PEBD@Z
xdata	ENDS
;	COMDAT xdata
xdata	SEGMENT
$unwind$?InitLog@@YAXXZ DD 010401H
	DD	04204H
xdata	ENDS
;	COMDAT xdata
xdata	SEGMENT
$unwind$?Log@@YAXPEBD@Z DD 020601H
	DD	030023206H
xdata	ENDS
;	COMDAT xdata
xdata	SEGMENT
$unwind$?eof@?$_Narrow_char_traits@DH@std@@SAHXZ DD 010401H
	DD	04204H
xdata	ENDS
;	COMDAT xdata
xdata	SEGMENT
$unwind$?eq_int_type@?$_Narrow_char_traits@DH@std@@SA_NHH@Z DD 040a01H
	DD	06340aH
	DD	07006320aH
xdata	ENDS
;	COMDAT xdata
xdata	SEGMENT
$unwind$?length@?$_Narrow_char_traits@DH@std@@SA_KQEBD@Z DD 020601H
	DD	030023206H
xdata	ENDS
; Function compile flags: /Odt
;	COMDAT __JustMyCode_Default
_TEXT	SEGMENT
__JustMyCode_Default PROC				; COMDAT
	ret	0
__JustMyCode_Default ENDP
_TEXT	ENDS
; Function compile flags: /Ogtpy
;	COMDAT ??$addressof@V?$basic_ostream@DU?$char_traits@D@std@@@std@@@std@@YAPEAV?$basic_ostream@DU?$char_traits@D@std@@@0@AEAV10@@Z
_TEXT	SEGMENT
_Val$ = 48
??$addressof@V?$basic_ostream@DU?$char_traits@D@std@@@std@@@std@@YAPEAV?$basic_ostream@DU?$char_traits@D@std@@@0@AEAV10@@Z PROC ; std::addressof<std::basic_ostream<char,std::char_traits<char> > >, COMDAT
; File C:\Program Files\Microsoft Visual Studio\2022\Community\VC\Tools\MSVC\14.43.34808\include\type_traits
; Line 1550
$LN6:
	push	rbx
	sub	rsp, 32					; 00000020H
	mov	rbx, rcx
	lea	rcx, OFFSET FLAT:__45A5DE0A_type_traits
	call	__CheckForDebuggerJustMyCode
	mov	rax, rbx
; Line 1552
	add	rsp, 32					; 00000020H
	pop	rbx
	ret	0
??$addressof@V?$basic_ostream@DU?$char_traits@D@std@@@std@@@std@@YAPEAV?$basic_ostream@DU?$char_traits@D@std@@@0@AEAV10@@Z ENDP ; std::addressof<std::basic_ostream<char,std::char_traits<char> > >
_TEXT	ENDS
; Function compile flags: /Ogtpy
;	COMDAT ??Bsentry@?$basic_ostream@DU?$char_traits@D@std@@@std@@QEBA_NXZ
_TEXT	SEGMENT
this$ = 48
??Bsentry@?$basic_ostream@DU?$char_traits@D@std@@@std@@QEBA_NXZ PROC ; std::basic_ostream<char,std::char_traits<char> >::sentry::operator bool, COMDAT
; File C:\Program Files\Microsoft Visual Studio\2022\Community\VC\Tools\MSVC\14.43.34808\include\__msvc_ostream.hpp
; Line 122
$LN4:
	push	rbx
	sub	rsp, 32					; 00000020H
	mov	rbx, rcx
	lea	rcx, OFFSET FLAT:__B8A56285___msvc_ostream@hpp
	call	__CheckForDebuggerJustMyCode
	movzx	eax, BYTE PTR [rbx+8]
; Line 124
	add	rsp, 32					; 00000020H
	pop	rbx
	ret	0
??Bsentry@?$basic_ostream@DU?$char_traits@D@std@@@std@@QEBA_NXZ ENDP ; std::basic_ostream<char,std::char_traits<char> >::sentry::operator bool
_TEXT	ENDS
; Function compile flags: /Ogtpy
;	COMDAT ??1sentry@?$basic_ostream@DU?$char_traits@D@std@@@std@@QEAA@XZ
_TEXT	SEGMENT
this$ = 48
??1sentry@?$basic_ostream@DU?$char_traits@D@std@@@std@@QEAA@XZ PROC ; std::basic_ostream<char,std::char_traits<char> >::sentry::~sentry, COMDAT
; File C:\Program Files\Microsoft Visual Studio\2022\Community\VC\Tools\MSVC\14.43.34808\include\__msvc_ostream.hpp
; Line 107
$LN8:
	push	rbx
	sub	rsp, 32					; 00000020H
	mov	rbx, rcx
	lea	rcx, OFFSET FLAT:__B8A56285___msvc_ostream@hpp
	call	__CheckForDebuggerJustMyCode
	call	?uncaught_exception@std@@YA_NXZ		; std::uncaught_exception
	test	al, al
	jne	SHORT $LN2@sentry
; Line 117
	mov	rcx, QWORD PTR [rbx]
	call	QWORD PTR __imp_?_Osfx@?$basic_ostream@DU?$char_traits@D@std@@@std@@QEAAXXZ
$LN2@sentry:
; Line 119
	mov	rcx, rbx
	add	rsp, 32					; 00000020H
	pop	rbx
	jmp	??1_Sentry_base@?$basic_ostream@DU?$char_traits@D@std@@@std@@QEAA@XZ ; std::basic_ostream<char,std::char_traits<char> >::_Sentry_base::~_Sentry_base
??1sentry@?$basic_ostream@DU?$char_traits@D@std@@@std@@QEAA@XZ ENDP ; std::basic_ostream<char,std::char_traits<char> >::sentry::~sentry
_TEXT	ENDS
; Function compile flags: /Ogtpy
;	COMDAT ??0sentry@?$basic_ostream@DU?$char_traits@D@std@@@std@@QEAA@AEAV12@@Z
_TEXT	SEGMENT
this$ = 48
_Ostr$ = 56
??0sentry@?$basic_ostream@DU?$char_traits@D@std@@@std@@QEAA@AEAV12@@Z PROC ; std::basic_ostream<char,std::char_traits<char> >::sentry::sentry, COMDAT
; File C:\Program Files\Microsoft Visual Studio\2022\Community\VC\Tools\MSVC\14.43.34808\include\__msvc_ostream.hpp
; Line 90
$LN9:
	mov	QWORD PTR [rsp+16], rbx
	mov	QWORD PTR [rsp+24], rsi
	mov	QWORD PTR [rsp+8], rcx
	push	rdi
	sub	rsp, 32					; 00000020H
	mov	rbx, rdx
	mov	rdi, rcx
	lea	rcx, OFFSET FLAT:__B8A56285___msvc_ostream@hpp
	call	__CheckForDebuggerJustMyCode
	mov	rdx, rbx
	mov	rcx, rdi
	call	??0_Sentry_base@?$basic_ostream@DU?$char_traits@D@std@@@std@@QEAA@AEAV12@@Z ; std::basic_ostream<char,std::char_traits<char> >::_Sentry_base::_Sentry_base
	npad	1
; Line 91
	mov	rax, QWORD PTR [rbx]
	movsxd	rcx, DWORD PTR [rax+4]
	add	rcx, rbx
	call	QWORD PTR __imp_?good@ios_base@std@@QEBA_NXZ
	test	al, al
	je	SHORT $LN1@sentry
; Line 96
	mov	rax, QWORD PTR [rbx]
	movsxd	rcx, DWORD PTR [rax+4]
	add	rcx, rbx
	call	QWORD PTR __imp_?tie@?$basic_ios@DU?$char_traits@D@std@@@std@@QEBAPEAV?$basic_ostream@DU?$char_traits@D@std@@@2@XZ
	mov	rsi, rax
; Line 97
	test	rax, rax
	je	SHORT $LN4@sentry
	mov	rcx, rbx
	call	??$addressof@V?$basic_ostream@DU?$char_traits@D@std@@@std@@@std@@YAPEAV?$basic_ostream@DU?$char_traits@D@std@@@0@AEAV10@@Z ; std::addressof<std::basic_ostream<char,std::char_traits<char> > >
	cmp	rsi, rax
	je	SHORT $LN4@sentry
; Line 102
	mov	rcx, rsi
	call	QWORD PTR __imp_?flush@?$basic_ostream@DU?$char_traits@D@std@@@std@@QEAAAEAV12@XZ
; Line 103
	mov	rax, QWORD PTR [rbx]
	movsxd	rcx, DWORD PTR [rax+4]
	add	rcx, rbx
	call	QWORD PTR __imp_?good@ios_base@std@@QEBA_NXZ
	jmp	SHORT $LN1@sentry
$LN4@sentry:
; Line 98
	mov	al, 1
$LN1@sentry:
; Line 104
	mov	BYTE PTR [rdi+8], al
	mov	rax, rdi
	mov	rbx, QWORD PTR [rsp+56]
	mov	rsi, QWORD PTR [rsp+64]
	add	rsp, 32					; 00000020H
	pop	rdi
	ret	0
??0sentry@?$basic_ostream@DU?$char_traits@D@std@@@std@@QEAA@AEAV12@@Z ENDP ; std::basic_ostream<char,std::char_traits<char> >::sentry::sentry
_TEXT	ENDS
; Function compile flags: /Ogtpy
;	COMDAT text$x
text$x	SEGMENT
this$ = 48
_Ostr$ = 56
?dtor$0@?0???0sentry@?$basic_ostream@DU?$char_traits@D@std@@@std@@QEAA@AEAV12@@Z@4HA PROC ; `std::basic_ostream<char,std::char_traits<char> >::sentry::sentry'::`1'::dtor$0
	mov	rcx, QWORD PTR this$[rdx]
	jmp	??1_Sentry_base@?$basic_ostream@DU?$char_traits@D@std@@@std@@QEAA@XZ ; std::basic_ostream<char,std::char_traits<char> >::_Sentry_base::~_Sentry_base
?dtor$0@?0???0sentry@?$basic_ostream@DU?$char_traits@D@std@@@std@@QEAA@AEAV12@@Z@4HA ENDP ; `std::basic_ostream<char,std::char_traits<char> >::sentry::sentry'::`1'::dtor$0
text$x	ENDS
; Function compile flags: /Ogtpy
;	COMDAT ??1_Sentry_base@?$basic_ostream@DU?$char_traits@D@std@@@std@@QEAA@XZ
_TEXT	SEGMENT
this$ = 48
??1_Sentry_base@?$basic_ostream@DU?$char_traits@D@std@@@std@@QEAA@XZ PROC ; std::basic_ostream<char,std::char_traits<char> >::_Sentry_base::~_Sentry_base, COMDAT
; File C:\Program Files\Microsoft Visual Studio\2022\Community\VC\Tools\MSVC\14.43.34808\include\__msvc_ostream.hpp
; Line 76
$LN7:
	push	rbx
	sub	rsp, 32					; 00000020H
	mov	rbx, rcx
	lea	rcx, OFFSET FLAT:__B8A56285___msvc_ostream@hpp
	call	__CheckForDebuggerJustMyCode
; Line 77
	mov	rdx, QWORD PTR [rbx]
	mov	rax, QWORD PTR [rdx]
	movsxd	rcx, DWORD PTR [rax+4]
	add	rcx, rdx
	call	QWORD PTR __imp_?rdbuf@?$basic_ios@DU?$char_traits@D@std@@@std@@QEBAPEAV?$basic_streambuf@DU?$char_traits@D@std@@@2@XZ
; Line 78
	test	rax, rax
	je	SHORT $LN2@Sentry_bas
; Line 79
	mov	rcx, QWORD PTR [rax]
	mov	rdx, QWORD PTR [rcx+16]
	mov	rcx, rax
	call	rdx
	npad	1
$LN2@Sentry_bas:
; Line 81
	add	rsp, 32					; 00000020H
	pop	rbx
	ret	0
??1_Sentry_base@?$basic_ostream@DU?$char_traits@D@std@@@std@@QEAA@XZ ENDP ; std::basic_ostream<char,std::char_traits<char> >::_Sentry_base::~_Sentry_base
_TEXT	ENDS
; Function compile flags: /Ogtpy
;	COMDAT ??0_Sentry_base@?$basic_ostream@DU?$char_traits@D@std@@@std@@QEAA@AEAV12@@Z
_TEXT	SEGMENT
this$ = 48
_Ostr$ = 56
??0_Sentry_base@?$basic_ostream@DU?$char_traits@D@std@@@std@@QEAA@AEAV12@@Z PROC ; std::basic_ostream<char,std::char_traits<char> >::_Sentry_base::_Sentry_base, COMDAT
; File C:\Program Files\Microsoft Visual Studio\2022\Community\VC\Tools\MSVC\14.43.34808\include\__msvc_ostream.hpp
; Line 69
$LN7:
	mov	QWORD PTR [rsp+8], rbx
	push	rdi
	sub	rsp, 32					; 00000020H
	mov	rdi, rcx
	mov	rbx, rdx
	lea	rcx, OFFSET FLAT:__B8A56285___msvc_ostream@hpp
	call	__CheckForDebuggerJustMyCode
	mov	QWORD PTR [rdi], rbx
	mov	rax, QWORD PTR [rbx]
	movsxd	rcx, DWORD PTR [rax+4]
	add	rcx, rbx
	call	QWORD PTR __imp_?rdbuf@?$basic_ios@DU?$char_traits@D@std@@@std@@QEBAPEAV?$basic_streambuf@DU?$char_traits@D@std@@@2@XZ
	test	rax, rax
	je	SHORT $LN4@Sentry_bas
; Line 72
	mov	rdx, QWORD PTR [rax]
	mov	rcx, rax
	call	QWORD PTR [rdx+8]
$LN4@Sentry_bas:
; Line 74
	mov	rbx, QWORD PTR [rsp+48]
	mov	rax, rdi
	add	rsp, 32					; 00000020H
	pop	rdi
	ret	0
??0_Sentry_base@?$basic_ostream@DU?$char_traits@D@std@@@std@@QEAA@AEAV12@@Z ENDP ; std::basic_ostream<char,std::char_traits<char> >::_Sentry_base::_Sentry_base
_TEXT	ENDS
; Function compile flags: /Ogtpy
;	COMDAT ??$endl@DU?$char_traits@D@std@@@std@@YAAEAV?$basic_ostream@DU?$char_traits@D@std@@@0@AEAV10@@Z
_TEXT	SEGMENT
_Ostr$ = 48
??$endl@DU?$char_traits@D@std@@@std@@YAAEAV?$basic_ostream@DU?$char_traits@D@std@@@0@AEAV10@@Z PROC ; std::endl<char,std::char_traits<char> >, COMDAT
; File C:\Program Files\Microsoft Visual Studio\2022\Community\VC\Tools\MSVC\14.43.34808\include\__msvc_ostream.hpp
; Line 1012
$LN4:
	push	rbx
	sub	rsp, 32					; 00000020H
	mov	rbx, rcx
	lea	rcx, OFFSET FLAT:__B8A56285___msvc_ostream@hpp
	call	__CheckForDebuggerJustMyCode
	mov	rax, QWORD PTR [rbx]
	mov	dl, 10
	movsxd	rcx, DWORD PTR [rax+4]
	add	rcx, rbx
	call	QWORD PTR __imp_?widen@?$basic_ios@DU?$char_traits@D@std@@@std@@QEBADD@Z
	movzx	edx, al
	mov	rcx, rbx
	call	QWORD PTR __imp_?put@?$basic_ostream@DU?$char_traits@D@std@@@std@@QEAAAEAV12@D@Z
	mov	rcx, rbx
	call	QWORD PTR __imp_?flush@?$basic_ostream@DU?$char_traits@D@std@@@std@@QEAAAEAV12@XZ
	mov	rax, rbx
; Line 1016
	add	rsp, 32					; 00000020H
	pop	rbx
	ret	0
??$endl@DU?$char_traits@D@std@@@std@@YAAEAV?$basic_ostream@DU?$char_traits@D@std@@@0@AEAV10@@Z ENDP ; std::endl<char,std::char_traits<char> >
_TEXT	ENDS
; Function compile flags: /Ogtpy
;	COMDAT ??$?6U?$char_traits@D@std@@@std@@YAAEAV?$basic_ostream@DU?$char_traits@D@std@@@0@AEAV10@PEBD@Z
_TEXT	SEGMENT
_Ok$ = 32
_Ostr$ = 96
_Val$ = 104
_State$ = 112
??$?6U?$char_traits@D@std@@@std@@YAAEAV?$basic_ostream@DU?$char_traits@D@std@@@0@AEAV10@PEBD@Z PROC ; std::operator<<<std::char_traits<char> >, COMDAT
; File C:\Program Files\Microsoft Visual Studio\2022\Community\VC\Tools\MSVC\14.43.34808\include\__msvc_ostream.hpp
; Line 768
$LN40:
	mov	QWORD PTR [rsp+16], rbx
	mov	QWORD PTR [rsp+32], rsi
	mov	QWORD PTR [rsp+8], rcx
	push	rdi
	push	r12
	push	r13
	push	r14
	push	r15
	sub	rsp, 48					; 00000030H
	mov	r13, rdx
	mov	r15, rcx
	lea	rcx, OFFSET FLAT:__B8A56285___msvc_ostream@hpp
	call	__CheckForDebuggerJustMyCode
; Line 773
	xor	ebx, ebx
	mov	DWORD PTR _State$[rsp], ebx
; Line 774
	mov	rcx, r13
	call	?length@?$_Narrow_char_traits@DH@std@@SA_KQEBD@Z ; std::_Narrow_char_traits<char,int>::length
	mov	r12, rax
; Line 775
	mov	r8, QWORD PTR [r15]
	movsxd	rcx, DWORD PTR [r8+4]
	add	rcx, r15
	call	QWORD PTR __imp_?width@ios_base@std@@QEBA_JXZ
	test	rax, rax
	jle	SHORT $LN17@operator
	mov	rcx, QWORD PTR [r15]
	movsxd	rcx, DWORD PTR [rcx+4]
	add	rcx, r15
	call	QWORD PTR __imp_?width@ios_base@std@@QEBA_JXZ
	cmp	rax, r12
	jle	SHORT $LN17@operator
	mov	rax, QWORD PTR [r15]
	movsxd	rcx, DWORD PTR [rax+4]
	add	rcx, r15
	call	QWORD PTR __imp_?width@ios_base@std@@QEBA_JXZ
	mov	r14, rax
	sub	r14, r12
	jmp	SHORT $LN18@operator
$LN17@operator:
	mov	r14, rbx
$LN18@operator:
; Line 776
	mov	rdx, r15
	lea	rcx, QWORD PTR _Ok$[rsp]
	call	??0sentry@?$basic_ostream@DU?$char_traits@D@std@@@std@@QEAA@AEAV12@@Z ; std::basic_ostream<char,std::char_traits<char> >::sentry::sentry
	npad	1
; Line 778
	lea	rcx, QWORD PTR _Ok$[rsp]
	call	??Bsentry@?$basic_ostream@DU?$char_traits@D@std@@@std@@QEBA_NXZ ; std::basic_ostream<char,std::char_traits<char> >::sentry::operator bool
	test	al, al
	jne	SHORT $LN8@operator
; Line 779
	mov	ebx, 4
; Line 780
	jmp	$LN22@operator
$LN8@operator:
; Line 782
	mov	rax, QWORD PTR [r15]
	movsxd	rcx, DWORD PTR [rax+4]
	add	rcx, r15
	call	QWORD PTR __imp_?flags@ios_base@std@@QEBAHXZ
	and	eax, 448				; 000001c0H
	cmp	eax, 64					; 00000040H
	je	SHORT $LN31@operator
$LL4@operator:
; Line 783
	test	r14, r14
	jle	SHORT $LN31@operator
; Line 784
	mov	rax, QWORD PTR [r15]
	movsxd	rcx, DWORD PTR [rax+4]
	add	rcx, r15
	movsxd	rsi, DWORD PTR [rax+4]
	add	rsi, r15
	call	QWORD PTR __imp_?fill@?$basic_ios@DU?$char_traits@D@std@@@std@@QEBADXZ
	movzx	edi, al
	mov	rcx, rsi
	call	QWORD PTR __imp_?rdbuf@?$basic_ios@DU?$char_traits@D@std@@@std@@QEBAPEAV?$basic_streambuf@DU?$char_traits@D@std@@@2@XZ
	mov	rcx, rax
	movzx	edx, dil
	call	QWORD PTR __imp_?sputc@?$basic_streambuf@DU?$char_traits@D@std@@@std@@QEAAHD@Z
	mov	edi, eax
	call	?eof@?$_Narrow_char_traits@DH@std@@SAHXZ ; std::_Narrow_char_traits<char,int>::eof
	mov	ecx, eax
	mov	edx, edi
	call	?eq_int_type@?$_Narrow_char_traits@DH@std@@SA_NHH@Z ; std::_Narrow_char_traits<char,int>::eq_int_type
	test	al, al
	je	SHORT $LN2@operator
; Line 785
	mov	ebx, 4
; Line 786
	jmp	$LN37@operator
$LN2@operator:
; Line 783
	dec	r14
	jmp	SHORT $LL4@operator
$LN31@operator:
; Line 791
	mov	rax, QWORD PTR [r15]
	movsxd	rcx, DWORD PTR [rax+4]
	add	rcx, r15
	call	QWORD PTR __imp_?rdbuf@?$basic_ios@DU?$char_traits@D@std@@@std@@QEBAPEAV?$basic_streambuf@DU?$char_traits@D@std@@@2@XZ
	mov	rcx, rax
	mov	r8, r12
	mov	rdx, r13
	call	QWORD PTR __imp_?sputn@?$basic_streambuf@DU?$char_traits@D@std@@@std@@QEAA_JPEBD_J@Z
	cmp	rax, r12
	jne	SHORT $LN36@operator
$LL7@operator:
; Line 796
	test	r14, r14
	jle	SHORT $LN6@operator
; Line 797
	mov	rax, QWORD PTR [r15]
	movsxd	rcx, DWORD PTR [rax+4]
	add	rcx, r15
	movsxd	rsi, DWORD PTR [rax+4]
	add	rsi, r15
	call	QWORD PTR __imp_?fill@?$basic_ios@DU?$char_traits@D@std@@@std@@QEBADXZ
	movzx	edi, al
	mov	rcx, rsi
	call	QWORD PTR __imp_?rdbuf@?$basic_ios@DU?$char_traits@D@std@@@std@@QEBAPEAV?$basic_streambuf@DU?$char_traits@D@std@@@2@XZ
	mov	rcx, rax
	movzx	edx, dil
	call	QWORD PTR __imp_?sputc@?$basic_streambuf@DU?$char_traits@D@std@@@std@@QEAAHD@Z
	mov	edi, eax
	call	?eof@?$_Narrow_char_traits@DH@std@@SAHXZ ; std::_Narrow_char_traits<char,int>::eof
	mov	ecx, eax
	mov	edx, edi
	call	?eq_int_type@?$_Narrow_char_traits@DH@std@@SA_NHH@Z ; std::_Narrow_char_traits<char,int>::eq_int_type
	test	al, al
	jne	SHORT $LN36@operator
; Line 796
	dec	r14
	jmp	SHORT $LL7@operator
$LN36@operator:
; Line 804
	or	ebx, 4
$LN37@operator:
	mov	DWORD PTR _State$[rsp], ebx
$LN6@operator:
	mov	rax, QWORD PTR [r15]
	movsxd	rcx, DWORD PTR [rax+4]
	add	rcx, r15
	xor	edx, edx
	call	QWORD PTR __imp_?width@ios_base@std@@QEAA_J_J@Z
	npad	1
	jmp	SHORT $LN22@operator
$LN23@operator:
	mov	r15, QWORD PTR _Ostr$[rsp]
	mov	ebx, DWORD PTR _State$[rsp]
$LN22@operator:
; Line 808
	mov	rax, QWORD PTR [r15]
	movsxd	rcx, DWORD PTR [rax+4]
	add	rcx, r15
	xor	r8d, r8d
	mov	edx, ebx
	call	QWORD PTR __imp_?setstate@?$basic_ios@DU?$char_traits@D@std@@@std@@QEAAXH_N@Z
	npad	1
; Line 809
	lea	rcx, QWORD PTR _Ok$[rsp]
	call	??1sentry@?$basic_ostream@DU?$char_traits@D@std@@@std@@QEAA@XZ ; std::basic_ostream<char,std::char_traits<char> >::sentry::~sentry
	mov	rax, r15
; Line 810
	mov	rbx, QWORD PTR [rsp+104]
	mov	rsi, QWORD PTR [rsp+120]
	add	rsp, 48					; 00000030H
	pop	r15
	pop	r14
	pop	r13
	pop	r12
	pop	rdi
	ret	0
??$?6U?$char_traits@D@std@@@std@@YAAEAV?$basic_ostream@DU?$char_traits@D@std@@@0@AEAV10@PEBD@Z ENDP ; std::operator<<<std::char_traits<char> >
_TEXT	ENDS
; Function compile flags: /Ogtpy
;	COMDAT text$x
text$x	SEGMENT
_Ok$ = 32
_Ostr$ = 96
_Val$ = 104
_State$ = 112
?dtor$0@?0???$?6U?$char_traits@D@std@@@std@@YAAEAV?$basic_ostream@DU?$char_traits@D@std@@@0@AEAV10@PEBD@Z@4HA PROC ; `std::operator<<<std::char_traits<char> >'::`1'::dtor$0
	lea	rcx, QWORD PTR _Ok$[rdx]
	jmp	??1sentry@?$basic_ostream@DU?$char_traits@D@std@@@std@@QEAA@XZ ; std::basic_ostream<char,std::char_traits<char> >::sentry::~sentry
?dtor$0@?0???$?6U?$char_traits@D@std@@@std@@YAAEAV?$basic_ostream@DU?$char_traits@D@std@@@0@AEAV10@PEBD@Z@4HA ENDP ; `std::operator<<<std::char_traits<char> >'::`1'::dtor$0
text$x	ENDS
; Function compile flags: /Ogtpy
;	COMDAT text$x
text$x	SEGMENT
_Ok$ = 32
_Ostr$ = 96
_Val$ = 104
_State$ = 112
?catch$1@?0???$?6U?$char_traits@D@std@@@std@@YAAEAV?$basic_ostream@DU?$char_traits@D@std@@@0@AEAV10@PEBD@Z@4HA PROC ; `std::operator<<<std::char_traits<char> >'::`1'::catch$1
; Line 805
	mov	QWORD PTR [rsp+16], rdx
	push	rbp
	sub	rsp, 32					; 00000020H
	mov	rbp, rdx
__catch$??$?6U?$char_traits@D@std@@@std@@YAAEAV?$basic_ostream@DU?$char_traits@D@std@@@0@AEAV10@PEBD@Z$0:
	mov	rdx, QWORD PTR _Ostr$[rbp]
	mov	rax, QWORD PTR [rdx]
	movsxd	rcx, DWORD PTR [rax+4]
	add	rcx, rdx
	mov	r8b, 1
	mov	edx, 4
	call	QWORD PTR __imp_?setstate@?$basic_ios@DU?$char_traits@D@std@@@std@@QEAAXH_N@Z
	npad	1
	mov	rax, 0
	add	rsp, 32					; 00000020H
	pop	rbp
	ret	0
	int	3
?catch$1@?0???$?6U?$char_traits@D@std@@@std@@YAAEAV?$basic_ostream@DU?$char_traits@D@std@@@0@AEAV10@PEBD@Z@4HA ENDP ; `std::operator<<<std::char_traits<char> >'::`1'::catch$1
text$x	ENDS
; Function compile flags: /Ogtpy
;	COMDAT ?InitLog@@YAXXZ
_TEXT	SEGMENT
?InitLog@@YAXXZ PROC					; InitLog, COMDAT
; File C:\Vývoj\C++\PrvniC2xPlusProjekt\PrvniC2xPlusProjekt\Log.cpp
; Line 9
$LN4:
	sub	rsp, 40					; 00000028H
	lea	rcx, OFFSET FLAT:__1AEA5505_Log@cpp
	call	__CheckForDebuggerJustMyCode
	lea	rcx, OFFSET FLAT:??_C@_0BB@IEGEGCHM@Initializing?5Log@
; Line 11
	add	rsp, 40					; 00000028H
	jmp	?Log@@YAXPEBD@Z				; Log
?InitLog@@YAXXZ ENDP					; InitLog
_TEXT	ENDS
; Function compile flags: /Ogtpy
;	COMDAT ?Log@@YAXPEBD@Z
_TEXT	SEGMENT
message$ = 48
?Log@@YAXPEBD@Z PROC					; Log, COMDAT
; File C:\Vývoj\C++\PrvniC2xPlusProjekt\PrvniC2xPlusProjekt\Log.cpp
; Line 4
$LN4:
	push	rbx
	sub	rsp, 32					; 00000020H
	mov	rbx, rcx
	lea	rcx, OFFSET FLAT:__1AEA5505_Log@cpp
	call	__CheckForDebuggerJustMyCode
	mov	rcx, QWORD PTR __imp_?cout@std@@3V?$basic_ostream@DU?$char_traits@D@std@@@1@A
	mov	rdx, rbx
	call	??$?6U?$char_traits@D@std@@@std@@YAAEAV?$basic_ostream@DU?$char_traits@D@std@@@0@AEAV10@PEBD@Z ; std::operator<<<std::char_traits<char> >
	mov	rcx, rax
	lea	rdx, OFFSET FLAT:??$endl@DU?$char_traits@D@std@@@std@@YAAEAV?$basic_ostream@DU?$char_traits@D@std@@@0@AEAV10@@Z ; std::endl<char,std::char_traits<char> >
; Line 6
	add	rsp, 32					; 00000020H
	pop	rbx
	rex_jmp	QWORD PTR __imp_??6?$basic_ostream@DU?$char_traits@D@std@@@std@@QEAAAEAV01@P6AAEAV01@AEAV01@@Z@Z
?Log@@YAXPEBD@Z ENDP					; Log
_TEXT	ENDS
; Function compile flags: /Ogtpy
;	COMDAT ?eof@?$_Narrow_char_traits@DH@std@@SAHXZ
_TEXT	SEGMENT
?eof@?$_Narrow_char_traits@DH@std@@SAHXZ PROC		; std::_Narrow_char_traits<char,int>::eof, COMDAT
; File C:\Program Files\Microsoft Visual Studio\2022\Community\VC\Tools\MSVC\14.43.34808\include\__msvc_string_view.hpp
; Line 503
$LN6:
	sub	rsp, 40					; 00000028H
	lea	rcx, OFFSET FLAT:__A84FD9E6___msvc_string_view@hpp
	call	__CheckForDebuggerJustMyCode
	mov	eax, -1
; Line 505
	add	rsp, 40					; 00000028H
	ret	0
?eof@?$_Narrow_char_traits@DH@std@@SAHXZ ENDP		; std::_Narrow_char_traits<char,int>::eof
_TEXT	ENDS
; Function compile flags: /Ogtpy
;	COMDAT ?eq_int_type@?$_Narrow_char_traits@DH@std@@SA_NHH@Z
_TEXT	SEGMENT
_Left$ = 48
_Right$ = 56
?eq_int_type@?$_Narrow_char_traits@DH@std@@SA_NHH@Z PROC ; std::_Narrow_char_traits<char,int>::eq_int_type, COMDAT
; File C:\Program Files\Microsoft Visual Studio\2022\Community\VC\Tools\MSVC\14.43.34808\include\__msvc_string_view.hpp
; Line 495
$LN6:
	mov	QWORD PTR [rsp+8], rbx
	push	rdi
	sub	rsp, 32					; 00000020H
	mov	ebx, ecx
	mov	edi, edx
	lea	rcx, OFFSET FLAT:__A84FD9E6___msvc_string_view@hpp
	call	__CheckForDebuggerJustMyCode
	cmp	ebx, edi
	mov	rbx, QWORD PTR [rsp+48]
	sete	al
; Line 497
	add	rsp, 32					; 00000020H
	pop	rdi
	ret	0
?eq_int_type@?$_Narrow_char_traits@DH@std@@SA_NHH@Z ENDP ; std::_Narrow_char_traits<char,int>::eq_int_type
_TEXT	ENDS
; Function compile flags: /Ogtpy
;	COMDAT ?length@?$_Narrow_char_traits@DH@std@@SA_KQEBD@Z
_TEXT	SEGMENT
_First$ = 48
?length@?$_Narrow_char_traits@DH@std@@SA_KQEBD@Z PROC	; std::_Narrow_char_traits<char,int>::length, COMDAT
; File C:\Program Files\Microsoft Visual Studio\2022\Community\VC\Tools\MSVC\14.43.34808\include\__msvc_string_view.hpp
; Line 417
$LN8:
	push	rbx
	sub	rsp, 32					; 00000020H
	mov	rbx, rcx
	lea	rcx, OFFSET FLAT:__A84FD9E6___msvc_string_view@hpp
	call	__CheckForDebuggerJustMyCode
	mov	rax, -1
	npad	4
$LL4@length:
; Line 433
	inc	rax
	cmp	BYTE PTR [rbx+rax], 0
	jne	SHORT $LL4@length
; Line 435
	add	rsp, 32					; 00000020H
	pop	rbx
	ret	0
?length@?$_Narrow_char_traits@DH@std@@SA_KQEBD@Z ENDP	; std::_Narrow_char_traits<char,int>::length
_TEXT	ENDS
; Function compile flags: /Ogtpy
;	COMDAT ?__empty_global_delete@@YAXPEAX_K@Z
_TEXT	SEGMENT
__formal$ = 8
__formal$ = 16
?__empty_global_delete@@YAXPEAX_K@Z PROC		; __empty_global_delete, COMDAT
; File C:\Vývoj\C++\PrvniC2xPlusProjekt\PrvniC2xPlusProjekt\Log.cpp
	lea	rcx, OFFSET FLAT:__1AEA5505_Log@cpp
	jmp	__CheckForDebuggerJustMyCode
?__empty_global_delete@@YAXPEAX_K@Z ENDP		; __empty_global_delete
_TEXT	ENDS
; Function compile flags: /Ogtpy
;	COMDAT ?__empty_global_delete@@YAXPEAX@Z
_TEXT	SEGMENT
__formal$ = 8
?__empty_global_delete@@YAXPEAX@Z PROC			; __empty_global_delete, COMDAT
; File C:\Vývoj\C++\PrvniC2xPlusProjekt\PrvniC2xPlusProjekt\Log.cpp
	lea	rcx, OFFSET FLAT:__1AEA5505_Log@cpp
	jmp	__CheckForDebuggerJustMyCode
?__empty_global_delete@@YAXPEAX@Z ENDP			; __empty_global_delete
_TEXT	ENDS
END
